; Function Attrs: mustprogress uwtable
define hidden void @_ZN5ceres8internal10ThreadPoolC2Ev(ptr noundef nonnull align 8 dereferenceable(240) initializes((0, 40)) %0) unnamed_addr #3 align 2 personality ptr @__gxx_personality_v0 {
  tail call void @llvm.memset.p0.i64(ptr noundef nonnull align 8 dereferenceable(169) %0, i8 0, i64 40, i1 false)
  %2 = getelementptr inbounds nuw i8, ptr %0, i64 40
  tail call void @_ZNSt18condition_variableC1Ev(ptr noundef nonnull align 8 dereferenceable(48) %2) #18
  %3 = getelementptr inbounds nuw i8, ptr %0, i64 88
  tail call void @llvm.memset.p0.i64(ptr noundef nonnull align 8 dereferenceable(80) %3, i8 0, i64 80, i1 false)
  invoke void @_ZNSt11_Deque_baseISt8functionIFvvEESaIS2_EE17_M_initialize_mapEm(ptr noundef nonnull align 8 dereferenceable(80) %3, i64 noundef 0)
          to label %_ZN5ceres8internal15ConcurrentQueueISt8functionIFvvEEEC2Ev.exit unwind label %4

4:                                                ; preds = %1
  %5 = landingpad { ptr, i32 }
          cleanup
  tail call void @_ZNSt18condition_variableD1Ev(ptr noundef nonnull align 8 dereferenceable(48) %2) #18
  resume { ptr, i32 } %5

_ZN5ceres8internal15ConcurrentQueueISt8functionIFvvEEEC2Ev.exit: ; preds = %1
  %6 = getelementptr inbounds nuw i8, ptr %0, i64 168
  store i8 1, ptr %6, align 8, !tbaa !3
  %7 = getelementptr inbounds nuw i8, ptr %0, i64 176
  tail call void @llvm.memset.p0.i64(ptr noundef nonnull align 8 dereferenceable(64) %7, i8 0, i64 64, i1 false)
  ret void
}